target datalayout = "e-m:e-p270:32:32-p271:32:32-p272:64:64-i64:64-i128:128-f80:128-n8:16:32:64-S128"
target triple = "x86_64-pc-linux-gnu"

%struct._GString = type { ptr, i64, i64 }
%struct._address = type { i32, i32, ptr, ptr }
%struct.tcpheader = type { i32, i32, i32, i32, i8, i32, i32, i16, i16, i8, i8, i16, i32, %struct._address, %struct._address, i8, i8, [4 x i32], [4 x i32], ptr }
%struct._packet_info = type { ptr, ptr, i32, i32, %struct.nstime_t, %struct.nstime_t, %struct.nstime_t, i8, ptr, ptr, ptr, ptr, %struct._address, %struct._address, %struct._address, %struct._address, %struct._address, %struct._address, i32, ptr, i8, [3 x i8], %struct.anon, i32, i32, i32, i32, ptr, i8, ptr, ptr, i16, i16, i32, i32, i16, i32, i32, ptr, ptr, ptr, i8, i8, i16, i16, i16, i32, i16, i16, ptr, ptr, ptr, ptr, ptr, i32, i32 }
%struct.nstime_t = type { i64, i32 }
%struct.anon = type { i8, [3 x i8] }
%struct.epan_dissect = type { ptr, ptr, ptr, %struct._packet_info }
%struct._th_t = type { i32, [8 x ptr] }
%struct.df_error_t = type { i32, ptr, %struct._dfilter_loc }
%struct._dfilter_loc = type { i64, i64 }
%struct._capture_file = type { ptr, i32, ptr, ptr, i8, i8, i8, i64, i16, i32, i32, i32, ptr, i32, i64, i32, i32, i32, i32, i8, i32, %struct.nstime_t, i32, ptr, ptr, ptr, i8, i8, i32, ptr, i8, i8, i8, i8, i8, i32, i32, i8, ptr, i32, i32, i8, %struct.packet_provider_data, i32, i32, %struct.epan_column_info, ptr, ptr, ptr, %struct.wtap_rec, %struct.Buffer, ptr, i64, i32 }
%struct.packet_provider_data = type { ptr, ptr, ptr, ptr, ptr, ptr }
%struct.epan_column_info = type { ptr, i32, ptr, ptr, ptr, %struct.col_expr_t, i8, ptr }
%struct.col_expr_t = type { ptr, ptr }
%struct.wtap_rec = type { i32, i32, i32, %struct.nstime_t, i32, %struct.nstime_t, i8, %union.anon, ptr, i8, %struct.Buffer, %struct.Buffer }
%union.anon = type { %struct.wtap_packet_header }
%struct.wtap_packet_header = type { i32, i32, i32, i32, %union.wtap_pseudo_header }
%union.wtap_pseudo_header = type { %struct.erf_mc_phdr }
%struct.erf_mc_phdr = type { %struct.erf_phdr, [16 x %struct.erf_ehdr], %union.anon.2 }
%struct.erf_phdr = type { i64, i8, i8, i16, i16, i16 }
%struct.erf_ehdr = type { i64 }
%union.anon.2 = type { i32 }
%struct.Buffer = type { ptr, i64, i64, i64 }

@.str = private unnamed_addr constant [4 x i8] c"tcp\00", align 1
@stderr = external global ptr, align 8
@.str.1 = private unnamed_addr constant [48 x i8] c"wireshark: Couldn't register tcp_graph tap: %s\0A\00", align 1
@__func__.select_tcpip_session = private unnamed_addr constant [21 x i8] c"select_tcpip_session\00", align 1
@.str.2 = private unnamed_addr constant [3 x i8] c"%s\00", align 1
@.str.3 = private unnamed_addr constant [52 x i8] c"Selected packet isn't a TCP segment or is truncated\00", align 1
@.str.4 = private unnamed_addr constant [69 x i8] c"The selected packet has more than one TCP unique conversation in it.\00", align 1

; Function Attrs: inlinehint nounwind null_pointer_is_valid sspstrong uwtable
define internal void @clear_address(ptr noundef %0) #5 {
  %2 = alloca ptr, align 8
  store ptr %0, ptr %2, align 8
  %3 = load ptr, ptr %2, align 8
  %4 = getelementptr inbounds nuw %struct._address, ptr %3, i32 0, i32 0
  store i32 0, ptr %4, align 8
  %5 = load ptr, ptr %2, align 8
  %6 = getelementptr inbounds nuw %struct._address, ptr %5, i32 0, i32 1
  store i32 0, ptr %6, align 4
  %7 = load ptr, ptr %2, align 8
  %8 = getelementptr inbounds nuw %struct._address, ptr %7, i32 0, i32 2
  store ptr null, ptr %8, align 8
  %9 = load ptr, ptr %2, align 8
  %10 = getelementptr inbounds nuw %struct._address, ptr %9, i32 0, i32 3
  store ptr null, ptr %10, align 8
  ret void
}

; Function Attrs: inlinehint null_pointer_is_valid sspstrong uwtable
define internal void @free_address_wmem(ptr noundef %0, ptr noundef %1) #4 {
  %3 = alloca ptr, align 8
  %4 = alloca ptr, align 8
  store ptr %0, ptr %3, align 8
  store ptr %1, ptr %4, align 8
  %5 = load ptr, ptr %4, align 8
  %6 = getelementptr inbounds nuw %struct._address, ptr %5, i32 0, i32 0
  %7 = load i32, ptr %6, align 8
  %8 = icmp ne i32 %7, 0
  br i1 %8, label %9, label %26

9:                                                ; preds = %2
  %10 = load ptr, ptr %4, align 8
  %11 = getelementptr inbounds nuw %struct._address, ptr %10, i32 0, i32 1
  %12 = load i32, ptr %11, align 4
  %13 = icmp sgt i32 %12, 0
  br i1 %13, label %14, label %26

14:                                               ; preds = %9
  %15 = load ptr, ptr %4, align 8
  %16 = getelementptr inbounds nuw %struct._address, ptr %15, i32 0, i32 3
  %17 = load ptr, ptr %16, align 8
  %18 = icmp ne ptr %17, null
  br i1 %18, label %19, label %26

19:                                               ; preds = %14
  br label %20

20:                                               ; preds = %19
  br label %21

21:                                               ; preds = %20
  %22 = load ptr, ptr %3, align 8
  %23 = load ptr, ptr %4, align 8
  %24 = getelementptr inbounds nuw %struct._address, ptr %23, i32 0, i32 3
  %25 = load ptr, ptr %24, align 8
  call void @wmem_free(ptr noundef %22, ptr noundef %25)
  br label %26

26:                                               ; preds = %21, %14, %9, %2
  %27 = load ptr, ptr %4, align 8
  call void @clear_address(ptr noundef %27)
  ret void
}

; Function Attrs: inlinehint null_pointer_is_valid sspstrong uwtable
define internal void @free_address(ptr noundef %0) #4 {
  %2 = alloca ptr, align 8
  store ptr %0, ptr %2, align 8
  %3 = load ptr, ptr %2, align 8
  call void @free_address_wmem(ptr noundef null, ptr noundef %3)
  ret void
}

; Function Attrs: null_pointer_is_valid sspstrong uwtable
define hidden i32 @select_tcpip_session(ptr noundef %0) #0 {
  %2 = alloca i32, align 4
  %3 = alloca ptr, align 8
  %4 = alloca ptr, align 8
  %5 = alloca %struct.epan_dissect, align 8
  %6 = alloca ptr, align 8
  %7 = alloca i32, align 4
  %8 = alloca ptr, align 8
  %9 = alloca ptr, align 8
  %10 = alloca %struct._th_t, align 8
  %11 = alloca i32, align 4
  %12 = alloca i32, align 4
  store ptr %0, ptr %3, align 8
  call void @llvm.lifetime.start.p0(i64 8, ptr %4) #17
  call void @llvm.lifetime.start.p0(i64 464, ptr %5) #17
  call void @llvm.lifetime.start.p0(i64 8, ptr %6) #17
  call void @llvm.lifetime.start.p0(i64 4, ptr %7) #17
  call void @llvm.lifetime.start.p0(i64 8, ptr %8) #17
  call void @llvm.lifetime.start.p0(i64 8, ptr %9) #17
  call void @llvm.lifetime.start.p0(i64 72, ptr %10) #17
  call void @llvm.memset.p0.i64(ptr align 8 %10, i8 0, i64 72, i1 false)
  %13 = load ptr, ptr %3, align 8
  %14 = icmp ne ptr %13, null
  br i1 %14, label %16, label %15

15:                                               ; preds = %1
  store i32 -1, ptr %2, align 4
  store i32 1, ptr %11, align 4
  br label %101

16:                                               ; preds = %1
  %17 = call zeroext i1 @dfilter_compile_full(ptr noundef @.str, ptr noundef %6, ptr noundef %8, i32 noundef 6, ptr noundef @__func__.select_tcpip_session)
  br i1 %17, label %23, label %18

18:                                               ; preds = %16
  %19 = load ptr, ptr %8, align 8
  %20 = getelementptr inbounds nuw %struct.df_error_t, ptr %19, i32 0, i32 1
  %21 = load ptr, ptr %20, align 8
  %22 = call ptr (i32, i32, ptr, ...) @simple_dialog(i32 noundef 3, i32 noundef 1, ptr noundef @.str.2, ptr noundef %21)
  call void @df_error_free(ptr noundef %8)
  store i32 -1, ptr %2, align 4
  store i32 1, ptr %11, align 4
  br label %101

23:                                               ; preds = %16
  %24 = load ptr, ptr %3, align 8
  %25 = call zeroext i1 @cf_read_current_record(ptr noundef %24)
  br i1 %25, label %27, label %26

26:                                               ; preds = %23
  store i32 -1, ptr %2, align 4
  store i32 1, ptr %11, align 4
  br label %101

27:                                               ; preds = %23
  %28 = load ptr, ptr %3, align 8
  %29 = getelementptr inbounds nuw %struct._capture_file, ptr %28, i32 0, i32 46
  %30 = load ptr, ptr %29, align 8
  store ptr %30, ptr %4, align 8
  %31 = call ptr @register_tap_listener(ptr noundef @.str, ptr noundef %10, ptr noundef null, i32 noundef 0, ptr noundef null, ptr noundef @tap_tcpip_packet, ptr noundef null, ptr noundef null)
  store ptr %31, ptr %9, align 8
  %32 = load ptr, ptr %9, align 8
  %33 = icmp ne ptr %32, null
  br i1 %33, label %34, label %42

34:                                               ; preds = %27
  %35 = load ptr, ptr @stderr, align 8
  %36 = load ptr, ptr %9, align 8
  %37 = getelementptr inbounds nuw %struct._GString, ptr %36, i32 0, i32 0
  %38 = load ptr, ptr %37, align 8
  %39 = call i32 (ptr, i32, ptr, ...) @__fprintf_chk(ptr noundef %35, i32 noundef 2, ptr noundef @.str.1, ptr noundef %38)
  %40 = load ptr, ptr %9, align 8
  %41 = call ptr @g_string_free(ptr noundef %40, i32 noundef 1)
  call void @exit(i32 noundef 1) #18
  unreachable

42:                                               ; preds = %27
  %43 = load ptr, ptr %3, align 8
  %44 = getelementptr inbounds nuw %struct._capture_file, ptr %43, i32 0, i32 0
  %45 = load ptr, ptr %44, align 8
  call void @epan_dissect_init(ptr noundef %5, ptr noundef %45, i1 noundef zeroext true, i1 noundef zeroext false)
  %46 = load ptr, ptr %6, align 8
  call void @epan_dissect_prime_with_dfilter(ptr noundef %5, ptr noundef %46)
  %47 = load ptr, ptr %3, align 8
  %48 = getelementptr inbounds nuw %struct._capture_file, ptr %47, i32 0, i32 8
  %49 = load i16, ptr %48, align 8
  %50 = zext i16 %49 to i32
  %51 = load ptr, ptr %3, align 8
  %52 = getelementptr inbounds nuw %struct._capture_file, ptr %51, i32 0, i32 49
  %53 = load ptr, ptr %4, align 8
  call void @epan_dissect_run_with_taps(ptr noundef %5, i32 noundef %50, ptr noundef %52, ptr noundef %53, ptr noundef null)
  call void @epan_dissect_cleanup(ptr noundef %5)
  call void @remove_tap_listener(ptr noundef %10)
  %54 = load ptr, ptr %6, align 8
  call void @dfilter_free(ptr noundef %54)
  %55 = getelementptr inbounds nuw %struct._th_t, ptr %10, i32 0, i32 0
  %56 = load i32, ptr %55, align 8
  %57 = icmp eq i32 %56, 0
  br i1 %57, label %58, label %60

58:                                               ; preds = %42
  %59 = call ptr (i32, i32, ptr, ...) @simple_dialog(i32 noundef 3, i32 noundef 1, ptr noundef @.str.3)
  store i32 -1, ptr %2, align 4
  store i32 1, ptr %11, align 4
  br label %101

60:                                               ; preds = %42
  %61 = getelementptr inbounds nuw %struct._th_t, ptr %10, i32 0, i32 0
  %62 = load i32, ptr %61, align 8
  %63 = icmp sgt i32 %62, 1
  br i1 %63, label %64, label %66

64:                                               ; preds = %60
  %65 = call ptr (i32, i32, ptr, ...) @simple_dialog(i32 noundef 3, i32 noundef 1, ptr noundef @.str.4)
  store i32 -1, ptr %2, align 4
  store i32 1, ptr %11, align 4
  br label %101

66:                                               ; preds = %60
  %67 = getelementptr inbounds nuw %struct._th_t, ptr %10, i32 0, i32 1
  %68 = getelementptr [8 x ptr], ptr %67, i64 0, i64 0
  %69 = load ptr, ptr %68, align 8
  %70 = getelementptr inbounds nuw %struct.tcpheader, ptr %69, i32 0, i32 12
  %71 = load i32, ptr %70, align 4
  store i32 %71, ptr %7, align 4
  call void @llvm.lifetime.start.p0(i64 4, ptr %12) #17
  store i32 0, ptr %12, align 4
  br label %72

72:                                               ; preds = %96, %66
  %73 = load i32, ptr %12, align 4
  %74 = getelementptr inbounds nuw %struct._th_t, ptr %10, i32 0, i32 0
  %75 = load i32, ptr %74, align 8
  %76 = icmp slt i32 %73, %75
  br i1 %76, label %78, label %77

77:                                               ; preds = %72
  store i32 2, ptr %11, align 4
  call void @llvm.lifetime.end.p0(i64 4, ptr %12) #17
  br label %99

78:                                               ; preds = %72
  %79 = getelementptr inbounds nuw %struct._th_t, ptr %10, i32 0, i32 1
  %80 = load i32, ptr %12, align 4
  %81 = sext i32 %80 to i64
  %82 = getelementptr [8 x ptr], ptr %79, i64 0, i64 %81
  %83 = load ptr, ptr %82, align 8
  %84 = getelementptr inbounds nuw %struct.tcpheader, ptr %83, i32 0, i32 13
  call void @free_address(ptr noundef %84)
  %85 = getelementptr inbounds nuw %struct._th_t, ptr %10, i32 0, i32 1
  %86 = load i32, ptr %12, align 4
  %87 = sext i32 %86 to i64
  %88 = getelementptr [8 x ptr], ptr %85, i64 0, i64 %87
  %89 = load ptr, ptr %88, align 8
  %90 = getelementptr inbounds nuw %struct.tcpheader, ptr %89, i32 0, i32 14
  call void @free_address(ptr noundef %90)
  %91 = getelementptr inbounds nuw %struct._th_t, ptr %10, i32 0, i32 1
  %92 = load i32, ptr %12, align 4
  %93 = sext i32 %92 to i64
  %94 = getelementptr [8 x ptr], ptr %91, i64 0, i64 %93
  %95 = load ptr, ptr %94, align 8
  call void @g_free(ptr noundef %95)
  br label %96

96:                                               ; preds = %78
  %97 = load i32, ptr %12, align 4
  %98 = add i32 %97, 1
  store i32 %98, ptr %12, align 4
  br label %72, !llvm.loop !12

99:                                               ; preds = %77
  %100 = load i32, ptr %7, align 4
  store i32 %100, ptr %2, align 4
  store i32 1, ptr %11, align 4
  br label %101

101:                                              ; preds = %99, %64, %58, %26, %18, %15
  call void @llvm.lifetime.end.p0(i64 72, ptr %10) #17
  call void @llvm.lifetime.end.p0(i64 8, ptr %9) #17
  call void @llvm.lifetime.end.p0(i64 8, ptr %8) #17
  call void @llvm.lifetime.end.p0(i64 4, ptr %7) #17
  call void @llvm.lifetime.end.p0(i64 8, ptr %6) #17
  call void @llvm.lifetime.end.p0(i64 464, ptr %5) #17
  call void @llvm.lifetime.end.p0(i64 8, ptr %4) #17
  %102 = load i32, ptr %2, align 4
  ret i32 %102
}