; Function Attrs: null_pointer_is_valid sspstrong uwtable
define hidden i32 @select_tcpip_session(ptr noundef %0) local_unnamed_addr #0 {
  %2 = alloca %struct.epan_dissect, align 8
  %3 = alloca ptr, align 8
  %4 = alloca ptr, align 8
  %5 = alloca %struct._th_t, align 8
  call void @llvm.lifetime.start.p0(i64 464, ptr nonnull %2) #15
  call void @llvm.lifetime.start.p0(i64 8, ptr nonnull %3) #15
  call void @llvm.lifetime.start.p0(i64 8, ptr nonnull %4) #15
  call void @llvm.lifetime.start.p0(i64 72, ptr nonnull %5) #15
  call void @llvm.memset.p0.i64(ptr noundef nonnull align 8 dereferenceable(72) %5, i8 0, i64 72, i1 false)
  %.not = icmp eq ptr %0, null
  br i1 %.not, label %.loopexit, label %6

6:                                                ; preds = %1
  %7 = call zeroext i1 @dfilter_compile_full(ptr noundef nonnull @.str, ptr noundef nonnull %3, ptr noundef nonnull %4, i32 noundef 6, ptr noundef nonnull @__func__.select_tcpip_session)
  br i1 %7, label %13, label %8

8:                                                ; preds = %6
  %9 = load ptr, ptr %4, align 8
  %10 = getelementptr inbounds nuw i8, ptr %9, i64 8
  %11 = load ptr, ptr %10, align 8
  %12 = call ptr (i32, i32, ptr, ...) @simple_dialog(i32 noundef 3, i32 noundef 1, ptr noundef nonnull @.str.2, ptr noundef %11)
  call void @df_error_free(ptr noundef nonnull %4)
  br label %.loopexit

13:                                               ; preds = %6
  %14 = call zeroext i1 @cf_read_current_record(ptr noundef nonnull %0)
  br i1 %14, label %15, label %.loopexit

15:                                               ; preds = %13
  %16 = getelementptr inbounds nuw i8, ptr %0, i64 352
  %17 = load ptr, ptr %16, align 8
  %18 = call ptr @register_tap_listener(ptr noundef nonnull @.str, ptr noundef nonnull %5, ptr noundef null, i32 noundef 0, ptr noundef null, ptr noundef nonnull @tap_tcpip_packet, ptr noundef null, ptr noundef null)
  %.not20 = icmp eq ptr %18, null
  br i1 %.not20, label %24, label %19

19:                                               ; preds = %15
  %20 = load ptr, ptr @stderr, align 8
  %21 = load ptr, ptr %18, align 8
  %22 = call i32 (ptr, i32, ptr, ...) @__fprintf_chk(ptr noundef %20, i32 noundef 2, ptr noundef nonnull @.str.1, ptr noundef %21)
  %23 = call ptr @g_string_free(ptr noundef nonnull %18, i32 noundef 1)
  call void @exit(i32 noundef 1) #16
  unreachable

24:                                               ; preds = %15
  %25 = load ptr, ptr %0, align 8
  call void @epan_dissect_init(ptr noundef nonnull %2, ptr noundef %25, i1 noundef zeroext true, i1 noundef zeroext false)
  %26 = load ptr, ptr %3, align 8
  call void @epan_dissect_prime_with_dfilter(ptr noundef nonnull %2, ptr noundef %26)
  %27 = getelementptr inbounds nuw i8, ptr %0, i64 48
  %28 = load i16, ptr %27, align 8
  %29 = zext i16 %28 to i32
  %30 = getelementptr inbounds nuw i8, ptr %0, i64 376
  call void @epan_dissect_run_with_taps(ptr noundef nonnull %2, i32 noundef %29, ptr noundef nonnull %30, ptr noundef %17, ptr noundef null)
  call void @epan_dissect_cleanup(ptr noundef nonnull %2)
  call void @remove_tap_listener(ptr noundef nonnull %5)
  %31 = load ptr, ptr %3, align 8
  call void @dfilter_free(ptr noundef %31)
  %32 = load i32, ptr %5, align 8
  %33 = icmp eq i32 %32, 0
  br i1 %33, label %34, label %36

34:                                               ; preds = %24
  %35 = call ptr (i32, i32, ptr, ...) @simple_dialog(i32 noundef 3, i32 noundef 1, ptr noundef nonnull @.str.3)
  br label %.loopexit

36:                                               ; preds = %24
  %37 = icmp sgt i32 %32, 1
  br i1 %37, label %38, label %40

38:                                               ; preds = %36
  %39 = call ptr (i32, i32, ptr, ...) @simple_dialog(i32 noundef 3, i32 noundef 1, ptr noundef nonnull @.str.4)
  br label %.loopexit

40:                                               ; preds = %36
  %41 = getelementptr inbounds nuw i8, ptr %5, i64 8
  %42 = load ptr, ptr %41, align 8
  %43 = getelementptr inbounds nuw i8, ptr %42, i64 36
  %44 = load i32, ptr %43, align 4
  %45 = icmp eq i32 %32, 1
  br i1 %45, label %.lr.ph, label %.loopexit

.lr.ph:                                           ; preds = %40, %free_address.exit23
  %indvars.iv = phi i64 [ %indvars.iv.next, %free_address.exit23 ], [ 0, %40 ]
  %46 = getelementptr [8 x ptr], ptr %41, i64 0, i64 %indvars.iv
  %47 = load ptr, ptr %46, align 8
  %48 = getelementptr inbounds nuw i8, ptr %47, i64 40
  %49 = load i32, ptr %48, align 8
  %.not.i.i = icmp eq i32 %49, 0
  br i1 %.not.i.i, label %free_address.exit, label %50

50:                                               ; preds = %.lr.ph
  %51 = getelementptr inbounds nuw i8, ptr %47, i64 44
  %52 = load i32, ptr %51, align 4
  %53 = icmp sgt i32 %52, 0
  br i1 %53, label %54, label %free_address.exit

54:                                               ; preds = %50
  %55 = getelementptr inbounds nuw i8, ptr %47, i64 56
  %56 = load ptr, ptr %55, align 8
  %.not6.i.i = icmp eq ptr %56, null
  br i1 %.not6.i.i, label %free_address.exit, label %57

57:                                               ; preds = %54
  call void @wmem_free(ptr noundef null, ptr noundef nonnull %56)
  br label %free_address.exit

free_address.exit:                                ; preds = %.lr.ph, %50, %54, %57
  call void @llvm.memset.p0.i64(ptr noundef nonnull align 8 dereferenceable(24) %48, i8 0, i64 24, i1 false)
  %58 = load ptr, ptr %46, align 8
  %59 = getelementptr inbounds nuw i8, ptr %58, i64 64
  %60 = load i32, ptr %59, align 8
  %.not.i.i21 = icmp eq i32 %60, 0
  br i1 %.not.i.i21, label %free_address.exit23, label %61

61:                                               ; preds = %free_address.exit
  %62 = getelementptr inbounds nuw i8, ptr %58, i64 68
  %63 = load i32, ptr %62, align 4
  %64 = icmp sgt i32 %63, 0
  br i1 %64, label %65, label %free_address.exit23

65:                                               ; preds = %61
  %66 = getelementptr inbounds nuw i8, ptr %58, i64 80
  %67 = load ptr, ptr %66, align 8
  %.not6.i.i22 = icmp eq ptr %67, null
  br i1 %.not6.i.i22, label %free_address.exit23, label %68

68:                                               ; preds = %65
  call void @wmem_free(ptr noundef null, ptr noundef nonnull %67)
  br label %free_address.exit23

free_address.exit23:                              ; preds = %free_address.exit, %61, %65, %68
  call void @llvm.memset.p0.i64(ptr noundef nonnull align 8 dereferenceable(24) %59, i8 0, i64 24, i1 false)
  %69 = load ptr, ptr %46, align 8
  call void @g_free(ptr noundef %69)
  %indvars.iv.next = add nuw nsw i64 %indvars.iv, 1
  %70 = load i32, ptr %5, align 8
  %71 = sext i32 %70 to i64
  %72 = icmp slt i64 %indvars.iv.next, %71
  br i1 %72, label %.lr.ph, label %.loopexit, !llvm.loop !12

.loopexit:                                        ; preds = %free_address.exit23, %40, %13, %1, %38, %34, %8
  %.016 = phi i32 [ -1, %34 ], [ -1, %38 ], [ -1, %8 ], [ -1, %1 ], [ -1, %13 ], [ %44, %40 ], [ %44, %free_address.exit23 ]
  call void @llvm.lifetime.end.p0(i64 72, ptr nonnull %5) #15
  call void @llvm.lifetime.end.p0(i64 8, ptr nonnull %4) #15
  call void @llvm.lifetime.end.p0(i64 8, ptr nonnull %3) #15
  call void @llvm.lifetime.end.p0(i64 464, ptr nonnull %2) #15
  ret i32 %.016
}